; Function Attrs: mustprogress uwtable
define hidden noundef zeroext i1 @_ZN15expr_dominators7compileEjPKP4expr(ptr noundef nonnull align 8 dereferenceable(128) %0, i32 noundef %1, ptr noundef %2) local_unnamed_addr #3 align 2 personality ptr @__gxx_personality_v0 {
  %4 = alloca %class.obj_ref, align 8
  call void @llvm.lifetime.start.p0(i64 16, ptr nonnull %4) #22
  %5 = load ptr, ptr %0, align 8, !tbaa !89
  %6 = tail call noundef ptr @_ZN11ast_manager6mk_appEiijPKP4expr(ptr noundef nonnull align 8 dereferenceable(976) %5, i32 noundef 0, i32 noundef 5, i32 noundef %1, ptr noundef %2)
  %7 = load ptr, ptr %0, align 8, !tbaa !89
  store ptr %6, ptr %4, align 8, !tbaa !12
  %8 = getelementptr inbounds nuw i8, ptr %4, i64 8
  store ptr %7, ptr %8, align 8, !tbaa !94
  %.not.i.i = icmp eq ptr %6, null
  br i1 %.not.i.i, label %_ZN7obj_refI4expr11ast_managerEC2EPS0_RS1_.exit, label %_ZN11ast_manager7inc_refEP3ast.exit.i.i

_ZN11ast_manager7inc_refEP3ast.exit.i.i:          ; preds = %3
  %9 = getelementptr inbounds nuw i8, ptr %6, i64 8
  %10 = load i32, ptr %9, align 4, !tbaa !82
  %11 = add i32 %10, 1
  store i32 %11, ptr %9, align 4, !tbaa !82
  br label %_ZN7obj_refI4expr11ast_managerEC2EPS0_RS1_.exit

_ZN7obj_refI4expr11ast_managerEC2EPS0_RS1_.exit:  ; preds = %3, %_ZN11ast_manager7inc_refEP3ast.exit.i.i
  invoke void @_ZN15expr_dominators5resetEv(ptr noundef nonnull align 8 dereferenceable(128) %0)
          to label %.noexc unwind label %37

.noexc:                                           ; preds = %_ZN7obj_refI4expr11ast_managerEC2EPS0_RS1_.exit
  %12 = getelementptr inbounds nuw i8, ptr %0, i64 8
  br i1 %.not.i.i, label %16, label %_ZN11ast_manager7inc_refEP3ast.exit.i.i5

_ZN11ast_manager7inc_refEP3ast.exit.i.i5:         ; preds = %.noexc
  %13 = getelementptr inbounds nuw i8, ptr %6, i64 8
  %14 = load i32, ptr %13, align 4, !tbaa !82
  %15 = add i32 %14, 1
  store i32 %15, ptr %13, align 4, !tbaa !82
  br label %16

16:                                               ; preds = %_ZN11ast_manager7inc_refEP3ast.exit.i.i5, %.noexc
  %17 = load ptr, ptr %12, align 8, !tbaa !12
  %.not.i4.i.i = icmp eq ptr %17, null
  br i1 %.not.i4.i.i, label %_ZN7obj_refI4expr11ast_managerEaSEPS0_.exit.i, label %18

18:                                               ; preds = %16
  %19 = getelementptr inbounds nuw i8, ptr %0, i64 16
  %20 = load ptr, ptr %19, align 8, !tbaa !83
  %21 = getelementptr inbounds nuw i8, ptr %17, i64 8
  %22 = load i32, ptr %21, align 4, !tbaa !82
  %23 = add i32 %22, -1
  store i32 %23, ptr %21, align 4, !tbaa !82
  %24 = icmp eq i32 %23, 0
  br i1 %24, label %25, label %_ZN7obj_refI4expr11ast_managerEaSEPS0_.exit.i

25:                                               ; preds = %18
  invoke void @_ZN11ast_manager11delete_nodeEP3ast(ptr noundef nonnull align 8 dereferenceable(976) %20, ptr noundef nonnull %17)
          to label %_ZN7obj_refI4expr11ast_managerEaSEPS0_.exit.i unwind label %37

_ZN7obj_refI4expr11ast_managerEaSEPS0_.exit.i:    ; preds = %25, %18, %16
  store ptr %6, ptr %12, align 8, !tbaa !12
  invoke void @_ZN15expr_dominators18compute_post_orderEv(ptr noundef nonnull align 8 dereferenceable(128) %0)
          to label %.noexc7 unwind label %37

.noexc7:                                          ; preds = %_ZN7obj_refI4expr11ast_managerEaSEPS0_.exit.i
  %26 = invoke noundef zeroext i1 @_ZN15expr_dominators18compute_dominatorsEv(ptr noundef nonnull align 8 dereferenceable(128) %0)
          to label %.noexc8 unwind label %37

.noexc8:                                          ; preds = %.noexc7
  br i1 %26, label %27, label %_ZN15expr_dominators7compileEP4expr.exit

27:                                               ; preds = %.noexc8
  invoke void @_ZN15expr_dominators12extract_treeEv(ptr noundef nonnull align 8 dereferenceable(128) %0)
          to label %_ZN15expr_dominators7compileEP4expr.exit unwind label %37

_ZN15expr_dominators7compileEP4expr.exit:         ; preds = %.noexc8, %27
  br i1 %.not.i.i, label %_ZN7obj_refI4expr11ast_managerED2Ev.exit, label %28

28:                                               ; preds = %_ZN15expr_dominators7compileEP4expr.exit
  %29 = getelementptr inbounds nuw i8, ptr %6, i64 8
  %30 = load i32, ptr %29, align 4, !tbaa !82
  %31 = add i32 %30, -1
  store i32 %31, ptr %29, align 4, !tbaa !82
  %32 = icmp eq i32 %31, 0
  br i1 %32, label %33, label %_ZN7obj_refI4expr11ast_managerED2Ev.exit

33:                                               ; preds = %28
  invoke void @_ZN11ast_manager11delete_nodeEP3ast(ptr noundef nonnull align 8 dereferenceable(976) %7, ptr noundef nonnull %6)
          to label %_ZN7obj_refI4expr11ast_managerED2Ev.exit unwind label %34

34:                                               ; preds = %33
  %35 = landingpad { ptr, i32 }
          catch ptr null
  %36 = extractvalue { ptr, i32 } %35, 0
  tail call void @__clang_call_terminate(ptr %36) #25
  unreachable

_ZN7obj_refI4expr11ast_managerED2Ev.exit:         ; preds = %_ZN15expr_dominators7compileEP4expr.exit, %28, %33
  call void @llvm.lifetime.end.p0(i64 16, ptr nonnull %4) #22
  ret i1 %26

37:                                               ; preds = %27, %.noexc7, %_ZN7obj_refI4expr11ast_managerEaSEPS0_.exit.i, %25, %_ZN7obj_refI4expr11ast_managerEC2EPS0_RS1_.exit
  %38 = landingpad { ptr, i32 }
          cleanup
  call void @_ZN7obj_refI4expr11ast_managerED2Ev(ptr noundef nonnull align 8 dereferenceable(16) %4) #22
  call void @llvm.lifetime.end.p0(i64 16, ptr nonnull %4) #22
  resume { ptr, i32 } %38
}